; Function Attrs: mustprogress uwtable
define noundef nonnull align 8 dereferenceable(32) ptr @_ZNK5arrow6Status7messageB5cxx11Ev(ptr noundef nonnull readonly align 8 captures(none) dereferenceable(8) %0) local_unnamed_addr #3 align 2 personality ptr @__gxx_personality_v0 {
  %2 = alloca %"class.std::allocator", align 1
  %3 = load atomic i8, ptr @_ZGVZNK5arrow6Status7messageB5cxx11EvE10no_messageB5cxx11 acquire, align 8
  %4 = icmp eq i8 %3, 0
  br i1 %4, label %5, label %10, !prof !44

5:                                                ; preds = %1
  %6 = tail call i32 @__cxa_guard_acquire(ptr nonnull @_ZGVZNK5arrow6Status7messageB5cxx11EvE10no_messageB5cxx11) #19
  %.not = icmp eq i32 %6, 0
  br i1 %.not, label %10, label %7

7:                                                ; preds = %5
  call void @llvm.lifetime.start.p0(i64 1, ptr nonnull %2) #19
  invoke void @_ZNSt7__cxx1112basic_stringIcSt11char_traitsIcESaIcEEC2IS3_EEPKcRKS3_(ptr noundef nonnull align 8 dereferenceable(32) @_ZZNK5arrow6Status7messageB5cxx11EvE10no_messageB5cxx11, ptr noundef nonnull @.str.21, ptr noundef nonnull align 1 dereferenceable(1) %2)
          to label %8 unwind label %15

8:                                                ; preds = %7
  call void @llvm.lifetime.end.p0(i64 1, ptr nonnull %2) #19
  %9 = call i32 @__cxa_atexit(ptr nonnull @_ZNSt7__cxx1112basic_stringIcSt11char_traitsIcESaIcEED2Ev, ptr nonnull @_ZZNK5arrow6Status7messageB5cxx11EvE10no_messageB5cxx11, ptr nonnull @__dso_handle) #19
  call void @__cxa_guard_release(ptr nonnull @_ZGVZNK5arrow6Status7messageB5cxx11EvE10no_messageB5cxx11) #19
  br label %10

10:                                               ; preds = %8, %5, %1
  %11 = load ptr, ptr %0, align 8, !tbaa !35
  %12 = icmp eq ptr %11, null
  %13 = getelementptr inbounds nuw i8, ptr %11, i64 8
  %14 = select i1 %12, ptr @_ZZNK5arrow6Status7messageB5cxx11EvE10no_messageB5cxx11, ptr %13
  ret ptr %14

15:                                               ; preds = %7
  %16 = landingpad { ptr, i32 }
          cleanup
  call void @llvm.lifetime.end.p0(i64 1, ptr nonnull %2) #19
  call void @__cxa_guard_abort(ptr nonnull @_ZGVZNK5arrow6Status7messageB5cxx11EvE10no_messageB5cxx11) #19
  resume { ptr, i32 } %16
}